target datalayout = "e-m:e-p270:32:32-p271:32:32-p272:64:64-i64:64-i128:128-f80:128-n8:16:32:64-S128"
target triple = "x86_64-unknown-linux-gnu"

@_ZTIN8QuantLib10CurveStateE = linkonce_odr constant { ptr, ptr } { ptr getelementptr inbounds (ptr, ptr @_ZTVN10__cxxabiv117__class_type_infoE, i64 2), ptr @_ZTSN8QuantLib10CurveStateE }, comdat, align 8
@_ZTIN8QuantLib24CoterminalSwapCurveStateE = external constant ptr

; Function Attrs: mustprogress uwtable
define void @_ZN8QuantLib22LogNormalCotSwapRatePc15setInitialStateERKNS_10CurveStateE(ptr noundef nonnull align 8 dereferenceable(600) %this, ptr noundef nonnull align 8 dereferenceable(64) %cs) unnamed_addr #3 align 2 {
entry:
  %this.addr = alloca ptr, align 8
  %cs.addr = alloca ptr, align 8
  %cotcs = alloca ptr, align 8
  %swapRates = alloca ptr, align 8
  store ptr %this, ptr %this.addr, align 8, !tbaa !3
  store ptr %cs, ptr %cs.addr, align 8, !tbaa !3
  %this1 = load ptr, ptr %this.addr, align 8
  call void @llvm.lifetime.start.p0(i64 8, ptr %cotcs) #17
  %0 = load ptr, ptr %cs.addr, align 8, !tbaa !3
  %1 = icmp eq ptr %0, null
  br i1 %1, label %dynamic_cast.null, label %dynamic_cast.notnull

dynamic_cast.notnull:                             ; preds = %entry
  %2 = call ptr @__dynamic_cast(ptr %0, ptr @_ZTIN8QuantLib10CurveStateE, ptr @_ZTIN8QuantLib24CoterminalSwapCurveStateE, i64 0) #17
  br label %dynamic_cast.end

dynamic_cast.null:                                ; preds = %entry
  br label %dynamic_cast.end

dynamic_cast.end:                                 ; preds = %dynamic_cast.null, %dynamic_cast.notnull
  %3 = phi ptr [ %2, %dynamic_cast.notnull ], [ null, %dynamic_cast.null ]
  store ptr %3, ptr %cotcs, align 8, !tbaa !3
  call void @llvm.lifetime.start.p0(i64 8, ptr %swapRates) #17
  %4 = load ptr, ptr %cotcs, align 8, !tbaa !3
  %vtable = load ptr, ptr %4, align 8, !tbaa !9
  %vfn = getelementptr inbounds ptr, ptr %vtable, i64 9
  %5 = load ptr, ptr %vfn, align 8
  %call = call noundef nonnull align 8 dereferenceable(24) ptr %5(ptr noundef nonnull align 8 dereferenceable(216) %4)
  store ptr %call, ptr %swapRates, align 8, !tbaa !3
  %6 = load ptr, ptr %swapRates, align 8, !tbaa !3
  call void @_ZN8QuantLib22LogNormalCotSwapRatePc22setCoterminalSwapRatesERKSt6vectorIdSaIdEE(ptr noundef nonnull align 8 dereferenceable(600) %this1, ptr noundef nonnull align 8 dereferenceable(24) %6)
  call void @llvm.lifetime.end.p0(i64 8, ptr %swapRates) #17
  call void @llvm.lifetime.end.p0(i64 8, ptr %cotcs) #17
  ret void
}