; Function Attrs: mustprogress uwtable
define void @_ZN8QuantLib22LogNormalCotSwapRatePc15setInitialStateERKNS_10CurveStateE(ptr noundef nonnull align 8 dereferenceable(600) %this, ptr noundef nonnull align 8 dereferenceable(64) %cs) unnamed_addr #4 align 2 {
entry:
  %0 = tail call ptr @__dynamic_cast(ptr nonnull %cs, ptr nonnull @_ZTIN8QuantLib10CurveStateE, ptr nonnull @_ZTIN8QuantLib24CoterminalSwapCurveStateE, i64 0) #24
  %vtable = load ptr, ptr %0, align 8, !tbaa !3
  %vfn = getelementptr inbounds i8, ptr %vtable, i64 72
  %1 = load ptr, ptr %vfn, align 8
  %call = tail call noundef nonnull align 8 dereferenceable(24) ptr %1(ptr noundef nonnull align 8 dereferenceable(216) %0)
  tail call void @_ZN8QuantLib22LogNormalCotSwapRatePc22setCoterminalSwapRatesERKSt6vectorIdSaIdEE(ptr noundef nonnull align 8 dereferenceable(600) %this, ptr noundef nonnull align 8 dereferenceable(24) %call)
  ret void
}